; Function Attrs: mustprogress uwtable
define hidden void @_ZN19OpenColorIO_v2_5dev15CTFReaderCDLElt5startEPPKc(ptr noundef nonnull align 8 dereferenceable(120) %0, ptr noundef readonly captures(none) %1) unnamed_addr #4 align 2 {
  tail call void @_ZN19OpenColorIO_v2_5dev14CTFReaderOpElt5startEPPKc(ptr noundef nonnull align 8 dereferenceable(104) %0, ptr noundef %1)
  %3 = load ptr, ptr %1, align 8, !tbaa !42
  %.not11 = icmp eq ptr %3, null
  br i1 %.not11, label %.critedge, label %.lr.ph

.lr.ph:                                           ; preds = %2
  %4 = getelementptr inbounds nuw i8, ptr %0, i64 104
  br label %.outer

.outer:                                           ; preds = %.thread, %.lr.ph
  %.ph = phi ptr [ %23, %.thread ], [ %3, %.lr.ph ]
  %.013.ph = phi i32 [ %20, %.thread ], [ 0, %.lr.ph ]
  %.0912.ph = phi i1 [ true, %.thread ], [ false, %.lr.ph ]
  br label %5

._crit_edge:                                      ; preds = %9
  br i1 %.0912.ph, label %._crit_edge.thread, label %.critedge

5:                                                ; preds = %.outer, %9
  %6 = phi ptr [ %13, %9 ], [ %.ph, %.outer ]
  %.013 = phi i32 [ %10, %9 ], [ %.013.ph, %.outer ]
  %7 = tail call noundef i32 @_ZN19OpenColorIO_v2_5dev8Platform10StrcasecmpEPKcS2_(ptr noundef nonnull @_ZN19OpenColorIO_v2_5devL10ATTR_STYLEE, ptr noundef nonnull %6)
  %8 = icmp eq i32 %7, 0
  br i1 %8, label %.thread, label %9

9:                                                ; preds = %5
  %10 = add i32 %.013, 2
  %11 = zext i32 %10 to i64
  %12 = getelementptr inbounds nuw ptr, ptr %1, i64 %11
  %13 = load ptr, ptr %12, align 8, !tbaa !42
  %.not = icmp eq ptr %13, null
  br i1 %.not, label %._crit_edge, label %5, !llvm.loop !492

.thread:                                          ; preds = %5
  %14 = load ptr, ptr %4, align 8, !tbaa !488
  %15 = or disjoint i32 %.013, 1
  %16 = zext i32 %15 to i64
  %17 = getelementptr inbounds nuw ptr, ptr %1, i64 %16
  %18 = load ptr, ptr %17, align 8, !tbaa !42
  %19 = tail call noundef i32 @_ZN19OpenColorIO_v2_5dev9CDLOpData8GetStyleEPKc(ptr noundef %18)
  tail call void @_ZN19OpenColorIO_v2_5dev9CDLOpData8setStyleENS0_5StyleE(ptr noundef nonnull align 8 dereferenceable(256) %14, i32 noundef %19)
  %20 = add i32 %.013, 2
  %21 = zext i32 %20 to i64
  %22 = getelementptr inbounds nuw ptr, ptr %1, i64 %21
  %23 = load ptr, ptr %22, align 8, !tbaa !42
  %.not15 = icmp eq ptr %23, null
  br i1 %.not15, label %._crit_edge.thread, label %.outer, !llvm.loop !492

.critedge:                                        ; preds = %2, %._crit_edge
  %24 = getelementptr inbounds nuw i8, ptr %0, i64 104
  %25 = load ptr, ptr %24, align 8, !tbaa !488
  tail call void @_ZN19OpenColorIO_v2_5dev9CDLOpData8setStyleENS0_5StyleE(ptr noundef nonnull align 8 dereferenceable(256) %25, i32 noundef 0)
  br label %._crit_edge.thread

._crit_edge.thread:                               ; preds = %.thread, %.critedge, %._crit_edge
  ret void
}